target datalayout = "e-m:e-p270:32:32-p271:32:32-p272:64:64-i64:64-i128:128-f80:128-n8:16:32:64-S128"
target triple = "x86_64-pc-linux-gnu"

%class.QFlags = type { i32 }
%class.MainWindow = type { %class.QMainWindow, %class.QList.0, ptr, ptr, %class.QSplitter, %class.QSplitter, %class.QWidget, %class.QList.4, ptr, ptr, ptr, ptr, ptr, ptr }
%class.QMainWindow = type { %class.QWidget }
%class.QList.0 = type { %struct.QArrayDataPointer.3 }
%struct.QArrayDataPointer.3 = type { ptr, ptr, i64 }
%class.QSplitter = type { %class.QFrame }
%class.QFrame = type { %class.QWidget }
%class.QWidget = type { %class.QObject, %class.QPaintDevice.base, ptr }
%class.QObject = type { ptr, %class.QScopedPointer }
%class.QScopedPointer = type { ptr }
%class.QPaintDevice.base = type <{ ptr, i16 }>
%class.QList.4 = type { %struct.QArrayDataPointer.7 }
%struct.QArrayDataPointer.7 = type { ptr, ptr, i64 }

@_ZTV10MainWindow = external unnamed_addr constant { [57 x ptr], [10 x ptr] }, align 8

; Function Attrs: mustprogress nounwind uwtable
define linkonce_odr void @_ZN17QArrayDataPointerIjEC2Ev(ptr noundef nonnull align 8 dereferenceable(24) %0) unnamed_addr #1 comdat align 2 {
  %2 = alloca ptr, align 8
  store ptr %0, ptr %2, align 8
  %3 = load ptr, ptr %2, align 8
  %4 = getelementptr inbounds %struct.QArrayDataPointer.7, ptr %3, i32 0, i32 0
  store ptr null, ptr %4, align 8
  %5 = getelementptr inbounds %struct.QArrayDataPointer.7, ptr %3, i32 0, i32 1
  store ptr null, ptr %5, align 8
  %6 = getelementptr inbounds %struct.QArrayDataPointer.7, ptr %3, i32 0, i32 2
  store i64 0, ptr %6, align 8
  ret void
}

; Function Attrs: mustprogress nounwind uwtable
define linkonce_odr void @_ZN17QArrayDataPointerI21register_stat_group_eEC2Ev(ptr noundef nonnull align 8 dereferenceable(24) %0) unnamed_addr #1 comdat align 2 {
  %2 = alloca ptr, align 8
  store ptr %0, ptr %2, align 8
  %3 = load ptr, ptr %2, align 8
  %4 = getelementptr inbounds %struct.QArrayDataPointer.3, ptr %3, i32 0, i32 0
  store ptr null, ptr %4, align 8
  %5 = getelementptr inbounds %struct.QArrayDataPointer.3, ptr %3, i32 0, i32 1
  store ptr null, ptr %5, align 8
  %6 = getelementptr inbounds %struct.QArrayDataPointer.3, ptr %3, i32 0, i32 2
  store i64 0, ptr %6, align 8
  ret void
}

; Function Attrs: mustprogress nounwind uwtable
define linkonce_odr void @_ZN5QListIjEC2Ev(ptr noundef nonnull align 8 dereferenceable(24) %0) unnamed_addr #1 comdat align 2 {
  %2 = alloca ptr, align 8
  store ptr %0, ptr %2, align 8
  %3 = load ptr, ptr %2, align 8
  %4 = getelementptr inbounds %class.QList.4, ptr %3, i32 0, i32 0
  call void @_ZN17QArrayDataPointerIjEC2Ev(ptr noundef nonnull align 8 dereferenceable(24) %4) #2
  ret void
}

; Function Attrs: mustprogress nounwind uwtable
define linkonce_odr void @_ZN5QListI21register_stat_group_eEC2Ev(ptr noundef nonnull align 8 dereferenceable(24) %0) unnamed_addr #1 comdat align 2 {
  %2 = alloca ptr, align 8
  store ptr %0, ptr %2, align 8
  %3 = load ptr, ptr %2, align 8
  %4 = getelementptr inbounds %class.QList.0, ptr %3, i32 0, i32 0
  call void @_ZN17QArrayDataPointerI21register_stat_group_eEC2Ev(ptr noundef nonnull align 8 dereferenceable(24) %4) #2
  ret void
}

; Function Attrs: mustprogress nounwind uwtable
define linkonce_odr void @_ZN6QFlagsIN2Qt10WindowTypeEEC2Ev(ptr noundef nonnull align 4 dereferenceable(4) %0) unnamed_addr #1 comdat align 2 {
  %2 = alloca ptr, align 8
  store ptr %0, ptr %2, align 8
  %3 = load ptr, ptr %2, align 8
  %4 = getelementptr inbounds %class.QFlags, ptr %3, i32 0, i32 0
  store i32 0, ptr %4, align 4
  ret void
}

; Function Attrs: mustprogress uwtable
define void @_ZN10MainWindowC2EP7QWidget(ptr noundef nonnull align 8 dereferenceable(272) %0, ptr noundef %1) unnamed_addr #3 align 2 personality ptr @__gxx_personality_v0 {
  %3 = alloca ptr, align 8
  %4 = alloca ptr, align 8
  %5 = alloca %class.QFlags, align 4
  %6 = alloca ptr, align 8
  %7 = alloca i32, align 4
  %8 = alloca %class.QFlags, align 4
  store ptr %0, ptr %3, align 8
  store ptr %1, ptr %4, align 8
  %9 = load ptr, ptr %3, align 8
  %10 = load ptr, ptr %4, align 8
  call void @_ZN6QFlagsIN2Qt10WindowTypeEEC2Ev(ptr noundef nonnull align 4 dereferenceable(4) %5) #2
  %11 = getelementptr inbounds %class.QFlags, ptr %5, i32 0, i32 0
  %12 = load i32, ptr %11, align 4
  call void @_ZN11QMainWindowC2EP7QWidget6QFlagsIN2Qt10WindowTypeEE(ptr noundef nonnull align 8 dereferenceable(40) %9, ptr noundef %10, i32 %12)
  store ptr getelementptr inbounds ({ [57 x ptr], [10 x ptr] }, ptr @_ZTV10MainWindow, i32 0, i32 0, i32 2), ptr %9, align 8
  %13 = getelementptr inbounds i8, ptr %9, i64 16
  store ptr getelementptr inbounds ({ [57 x ptr], [10 x ptr] }, ptr @_ZTV10MainWindow, i32 0, i32 1, i32 2), ptr %13, align 8
  %14 = getelementptr inbounds %class.MainWindow, ptr %9, i32 0, i32 1
  call void @_ZN5QListI21register_stat_group_eEC2Ev(ptr noundef nonnull align 8 dereferenceable(24) %14) #2
  %15 = getelementptr inbounds %class.MainWindow, ptr %9, i32 0, i32 2
  store ptr null, ptr %15, align 8
  %16 = getelementptr inbounds %class.MainWindow, ptr %9, i32 0, i32 3
  store ptr null, ptr %16, align 8
  %17 = getelementptr inbounds %class.MainWindow, ptr %9, i32 0, i32 4
  invoke void @_ZN9QSplitterC1EP7QWidget(ptr noundef nonnull align 8 dereferenceable(40) %17, ptr noundef null)
          to label %18 unwind label %32

18:                                               ; preds = %2
  %19 = getelementptr inbounds %class.MainWindow, ptr %9, i32 0, i32 5
  invoke void @_ZN9QSplitterC1EP7QWidget(ptr noundef nonnull align 8 dereferenceable(40) %19, ptr noundef null)
          to label %20 unwind label %36

20:                                               ; preds = %18
  %21 = getelementptr inbounds %class.MainWindow, ptr %9, i32 0, i32 6
  call void @_ZN6QFlagsIN2Qt10WindowTypeEEC2Ev(ptr noundef nonnull align 4 dereferenceable(4) %8) #2
  %22 = getelementptr inbounds %class.QFlags, ptr %8, i32 0, i32 0
  %23 = load i32, ptr %22, align 4
  invoke void @_ZN7QWidgetC1EPS_6QFlagsIN2Qt10WindowTypeEE(ptr noundef nonnull align 8 dereferenceable(40) %21, ptr noundef null, i32 %23)
          to label %24 unwind label %40

24:                                               ; preds = %20
  %25 = getelementptr inbounds %class.MainWindow, ptr %9, i32 0, i32 7
  call void @llvm.memset.p0.i64(ptr align 8 %25, i8 0, i64 24, i1 false)
  call void @_ZN5QListIjEC2Ev(ptr noundef nonnull align 8 dereferenceable(24) %25) #2
  %26 = getelementptr inbounds %class.MainWindow, ptr %9, i32 0, i32 8
  store ptr null, ptr %26, align 8
  %27 = getelementptr inbounds %class.MainWindow, ptr %9, i32 0, i32 9
  store ptr null, ptr %27, align 8
  %28 = getelementptr inbounds %class.MainWindow, ptr %9, i32 0, i32 10
  store ptr null, ptr %28, align 8
  %29 = getelementptr inbounds %class.MainWindow, ptr %9, i32 0, i32 11
  store ptr null, ptr %29, align 8
  %30 = getelementptr inbounds %class.MainWindow, ptr %9, i32 0, i32 12
  store ptr null, ptr %30, align 8
  %31 = getelementptr inbounds %class.MainWindow, ptr %9, i32 0, i32 13
  store ptr null, ptr %31, align 8
  ret void

32:                                               ; preds = %2
  %33 = landingpad { ptr, i32 }
          cleanup
  %34 = extractvalue { ptr, i32 } %33, 0
  store ptr %34, ptr %6, align 8
  %35 = extractvalue { ptr, i32 } %33, 1
  store i32 %35, ptr %7, align 4
  br label %45

36:                                               ; preds = %18
  %37 = landingpad { ptr, i32 }
          cleanup
  %38 = extractvalue { ptr, i32 } %37, 0
  store ptr %38, ptr %6, align 8
  %39 = extractvalue { ptr, i32 } %37, 1
  store i32 %39, ptr %7, align 4
  br label %44

40:                                               ; preds = %20
  %41 = landingpad { ptr, i32 }
          cleanup
  %42 = extractvalue { ptr, i32 } %41, 0
  store ptr %42, ptr %6, align 8
  %43 = extractvalue { ptr, i32 } %41, 1
  store i32 %43, ptr %7, align 4
  call void @_ZN9QSplitterD1Ev(ptr noundef nonnull align 8 dereferenceable(40) %19) #2
  br label %44

44:                                               ; preds = %40, %36
  call void @_ZN9QSplitterD1Ev(ptr noundef nonnull align 8 dereferenceable(40) %17) #2
  br label %45

45:                                               ; preds = %44, %32
  call void @_ZN5QListI21register_stat_group_eED2Ev(ptr noundef nonnull align 8 dereferenceable(24) %14) #2
  call void @_ZN11QMainWindowD2Ev(ptr noundef nonnull align 8 dereferenceable(40) %9) #2
  br label %46

46:                                               ; preds = %45
  %47 = load ptr, ptr %6, align 8
  %48 = load i32, ptr %7, align 4
  %49 = insertvalue { ptr, i32 } poison, ptr %47, 0
  %50 = insertvalue { ptr, i32 } %49, i32 %48, 1
  resume { ptr, i32 } %50
}