; Function Attrs: mustprogress uwtable
define void @_ZN10MainWindowC2EP7QWidget(ptr noundef nonnull align 8 dereferenceable(272) %0, ptr noundef %1) unnamed_addr #2 align 2 personality ptr @__gxx_personality_v0 {
  tail call void @_ZN11QMainWindowC2EP7QWidget6QFlagsIN2Qt10WindowTypeEE(ptr noundef nonnull align 8 dereferenceable(40) %0, ptr noundef %1, i32 0)
  store ptr getelementptr inbounds ({ [57 x ptr], [10 x ptr] }, ptr @_ZTV10MainWindow, i64 0, i32 0, i64 2), ptr %0, align 8
  %3 = getelementptr inbounds i8, ptr %0, i64 16
  store ptr getelementptr inbounds ({ [57 x ptr], [10 x ptr] }, ptr @_ZTV10MainWindow, i64 0, i32 1, i64 2), ptr %3, align 8
  %4 = getelementptr inbounds i8, ptr %0, i64 40
  %5 = getelementptr inbounds i8, ptr %0, i64 80
  tail call void @llvm.memset.p0.i64(ptr noundef nonnull align 8 dereferenceable(40) %4, i8 0, i64 40, i1 false)
  invoke void @_ZN9QSplitterC1EP7QWidget(ptr noundef nonnull align 8 dereferenceable(40) %5, ptr noundef null)
          to label %6 unwind label %12

6:                                                ; preds = %2
  %7 = getelementptr inbounds i8, ptr %0, i64 120
  invoke void @_ZN9QSplitterC1EP7QWidget(ptr noundef nonnull align 8 dereferenceable(40) %7, ptr noundef null)
          to label %8 unwind label %14

8:                                                ; preds = %6
  %9 = getelementptr inbounds i8, ptr %0, i64 160
  invoke void @_ZN7QWidgetC1EPS_6QFlagsIN2Qt10WindowTypeEE(ptr noundef nonnull align 8 dereferenceable(40) %9, ptr noundef null, i32 0)
          to label %10 unwind label %16

10:                                               ; preds = %8
  %11 = getelementptr inbounds i8, ptr %0, i64 200
  tail call void @llvm.memset.p0.i64(ptr noundef nonnull align 8 dereferenceable(72) %11, i8 0, i64 72, i1 false)
  ret void

12:                                               ; preds = %2
  %13 = landingpad { ptr, i32 }
          cleanup
  br label %19

14:                                               ; preds = %6
  %15 = landingpad { ptr, i32 }
          cleanup
  br label %18

16:                                               ; preds = %8
  %17 = landingpad { ptr, i32 }
          cleanup
  tail call void @_ZN9QSplitterD1Ev(ptr noundef nonnull align 8 dereferenceable(40) %7) #23
  br label %18

18:                                               ; preds = %16, %14
  %.pn = phi { ptr, i32 } [ %17, %16 ], [ %15, %14 ]
  tail call void @_ZN9QSplitterD1Ev(ptr noundef nonnull align 8 dereferenceable(40) %5) #23
  br label %19

19:                                               ; preds = %18, %12
  %.pn.pn = phi { ptr, i32 } [ %.pn, %18 ], [ %13, %12 ]
  tail call void @_ZN5QListI21register_stat_group_eED2Ev(ptr noundef nonnull align 8 dereferenceable(24) %4) #23
  tail call void @_ZN11QMainWindowD2Ev(ptr noundef nonnull align 8 dereferenceable(40) %0) #23
  resume { ptr, i32 } %.pn.pn
}